target datalayout = "e-m:e-p270:32:32-p271:32:32-p272:64:64-i64:64-i128:128-f80:128-n8:16:32:64-S128"
target triple = "x86_64-pc-linux-gnu"

%union.av_intfloat32 = type { i32 }

; Function Attrs: alwaysinline nounwind willreturn memory(none) uwtable
define internal float @av_clipf_c(float noundef %0, float noundef %1, float noundef %2) #4 {
  %4 = alloca float, align 4
  %5 = alloca float, align 4
  %6 = alloca float, align 4
  store float %0, ptr %4, align 4, !tbaa !135
  store float %1, ptr %5, align 4, !tbaa !135
  store float %2, ptr %6, align 4, !tbaa !135
  %7 = load float, ptr %4, align 4, !tbaa !135
  %8 = load float, ptr %5, align 4, !tbaa !135
  %9 = fcmp nsz ogt float %7, %8
  br i1 %9, label %10, label %12

10:                                               ; preds = %3
  %11 = load float, ptr %4, align 4, !tbaa !135
  br label %14

12:                                               ; preds = %3
  %13 = load float, ptr %5, align 4, !tbaa !135
  br label %14

14:                                               ; preds = %12, %10
  %15 = phi nsz float [ %11, %10 ], [ %13, %12 ]
  %16 = load float, ptr %6, align 4, !tbaa !135
  %17 = fcmp nsz ogt float %15, %16
  br i1 %17, label %18, label %20

18:                                               ; preds = %14
  %19 = load float, ptr %6, align 4, !tbaa !135
  br label %30

20:                                               ; preds = %14
  %21 = load float, ptr %4, align 4, !tbaa !135
  %22 = load float, ptr %5, align 4, !tbaa !135
  %23 = fcmp nsz ogt float %21, %22
  br i1 %23, label %24, label %26

24:                                               ; preds = %20
  %25 = load float, ptr %4, align 4, !tbaa !135
  br label %28

26:                                               ; preds = %20
  %27 = load float, ptr %5, align 4, !tbaa !135
  br label %28

28:                                               ; preds = %26, %24
  %29 = phi nsz float [ %25, %24 ], [ %27, %26 ]
  br label %30

30:                                               ; preds = %28, %18
  %31 = phi nsz float [ %19, %18 ], [ %29, %28 ]
  ret float %31
}

; Function Attrs: alwaysinline nounwind uwtable
define internal float @av_int2float(i32 noundef %0) #3 {
  %2 = alloca i32, align 4
  %3 = alloca %union.av_intfloat32, align 4
  store i32 %0, ptr %2, align 4, !tbaa !30
  call void @llvm.lifetime.start.p0(i64 4, ptr %3) #9
  %4 = load i32, ptr %2, align 4, !tbaa !30
  store i32 %4, ptr %3, align 4, !tbaa !36
  %5 = load float, ptr %3, align 4, !tbaa !36
  call void @llvm.lifetime.end.p0(i64 4, ptr %3) #9
  ret float %5
}

; Function Attrs: alwaysinline nounwind willreturn memory(none) uwtable
define internal i32 @av_bswap32(i32 noundef %0) #4 {
  %2 = alloca i32, align 4
  store i32 %0, ptr %2, align 4, !tbaa !30
  %3 = load i32, ptr %2, align 4, !tbaa !30
  %4 = shl i32 %3, 8
  %5 = and i32 %4, 65280
  %6 = load i32, ptr %2, align 4, !tbaa !30
  %7 = lshr i32 %6, 8
  %8 = and i32 %7, 255
  %9 = or i32 %5, %8
  %10 = shl i32 %9, 16
  %11 = load i32, ptr %2, align 4, !tbaa !30
  %12 = lshr i32 %11, 16
  %13 = shl i32 %12, 8
  %14 = and i32 %13, 65280
  %15 = load i32, ptr %2, align 4, !tbaa !30
  %16 = lshr i32 %15, 16
  %17 = lshr i32 %16, 8
  %18 = and i32 %17, 255
  %19 = or i32 %14, %18
  %20 = or i32 %10, %19
  ret i32 %20
}

; Function Attrs: alwaysinline nounwind uwtable
define internal void @rgbf32_to_y_c(ptr noundef %0, ptr noundef %1, ptr noundef %2, ptr noundef %3, i32 noundef %4, i32 noundef %5, ptr noundef %6) #3 {
  %8 = alloca ptr, align 8
  %9 = alloca ptr, align 8
  %10 = alloca ptr, align 8
  %11 = alloca ptr, align 8
  %12 = alloca i32, align 4
  %13 = alloca i32, align 4
  %14 = alloca ptr, align 8
  %15 = alloca i32, align 4
  %16 = alloca ptr, align 8
  %17 = alloca ptr, align 8
  %18 = alloca i32, align 4
  %19 = alloca i32, align 4
  %20 = alloca i32, align 4
  %21 = alloca i32, align 4
  %22 = alloca i32, align 4
  %23 = alloca i32, align 4
  store ptr %0, ptr %8, align 8, !tbaa !34
  store ptr %1, ptr %9, align 8, !tbaa !34
  store ptr %2, ptr %10, align 8, !tbaa !34
  store ptr %3, ptr %11, align 8, !tbaa !34
  store i32 %4, ptr %12, align 4, !tbaa !30
  store i32 %5, ptr %13, align 4, !tbaa !30
  store ptr %6, ptr %14, align 8, !tbaa !35
  call void @llvm.lifetime.start.p0(i64 4, ptr %15) #9
  call void @llvm.lifetime.start.p0(i64 8, ptr %16) #9
  %24 = load ptr, ptr %9, align 8, !tbaa !34
  store ptr %24, ptr %16, align 8, !tbaa !132
  call void @llvm.lifetime.start.p0(i64 8, ptr %17) #9
  %25 = load ptr, ptr %8, align 8, !tbaa !34
  store ptr %25, ptr %17, align 8, !tbaa !43
  call void @llvm.lifetime.start.p0(i64 4, ptr %18) #9
  %26 = load ptr, ptr %14, align 8, !tbaa !35
  %27 = getelementptr inbounds i32, ptr %26, i64 0
  %28 = load i32, ptr %27, align 4, !tbaa !30
  store i32 %28, ptr %18, align 4, !tbaa !30
  call void @llvm.lifetime.start.p0(i64 4, ptr %19) #9
  %29 = load ptr, ptr %14, align 8, !tbaa !35
  %30 = getelementptr inbounds i32, ptr %29, i64 1
  %31 = load i32, ptr %30, align 4, !tbaa !30
  store i32 %31, ptr %19, align 4, !tbaa !30
  call void @llvm.lifetime.start.p0(i64 4, ptr %20) #9
  %32 = load ptr, ptr %14, align 8, !tbaa !35
  %33 = getelementptr inbounds i32, ptr %32, i64 2
  %34 = load i32, ptr %33, align 4, !tbaa !30
  store i32 %34, ptr %20, align 4, !tbaa !30
  store i32 0, ptr %15, align 4, !tbaa !30
  br label %35

35:                                               ; preds = %137, %7
  %36 = load i32, ptr %15, align 4, !tbaa !30
  %37 = load i32, ptr %12, align 4, !tbaa !30
  %38 = icmp slt i32 %36, %37
  br i1 %38, label %39, label %140

39:                                               ; preds = %35
  call void @llvm.lifetime.start.p0(i64 4, ptr %21) #9
  %40 = load i32, ptr %13, align 4, !tbaa !30
  %41 = icmp ne i32 %40, 0
  br i1 %41, label %42, label %51

42:                                               ; preds = %39
  %43 = load ptr, ptr %16, align 8, !tbaa !132
  %44 = load i32, ptr %15, align 4, !tbaa !30
  %45 = mul nsw i32 3, %44
  %46 = sext i32 %45 to i64
  %47 = getelementptr inbounds float, ptr %43, i64 %46
  %48 = load i32, ptr %47, align 1, !tbaa !36
  %49 = call i32 @av_bswap32(i32 noundef %48) #10
  %50 = call nsz float @av_int2float(i32 noundef %49)
  br label %59

51:                                               ; preds = %39
  %52 = load ptr, ptr %16, align 8, !tbaa !132
  %53 = load i32, ptr %15, align 4, !tbaa !30
  %54 = mul nsw i32 3, %53
  %55 = sext i32 %54 to i64
  %56 = getelementptr inbounds float, ptr %52, i64 %55
  %57 = load i32, ptr %56, align 1, !tbaa !36
  %58 = call nsz float @av_int2float(i32 noundef %57)
  br label %59

59:                                               ; preds = %51, %42
  %60 = phi nsz float [ %50, %42 ], [ %58, %51 ]
  %61 = fmul nsz float 6.553500e+04, %60
  %62 = call nsz float @av_clipf_c(float noundef %61, float noundef 0.000000e+00, float noundef 6.553500e+04) #10
  %63 = call i64 @llvm.lrint.i64.f32(float %62)
  %64 = trunc i64 %63 to i32
  store i32 %64, ptr %21, align 4, !tbaa !30
  call void @llvm.lifetime.start.p0(i64 4, ptr %22) #9
  %65 = load i32, ptr %13, align 4, !tbaa !30
  %66 = icmp ne i32 %65, 0
  br i1 %66, label %67, label %77

67:                                               ; preds = %59
  %68 = load ptr, ptr %16, align 8, !tbaa !132
  %69 = load i32, ptr %15, align 4, !tbaa !30
  %70 = mul nsw i32 3, %69
  %71 = add nsw i32 %70, 1
  %72 = sext i32 %71 to i64
  %73 = getelementptr inbounds float, ptr %68, i64 %72
  %74 = load i32, ptr %73, align 1, !tbaa !36
  %75 = call i32 @av_bswap32(i32 noundef %74) #10
  %76 = call nsz float @av_int2float(i32 noundef %75)
  br label %86

77:                                               ; preds = %59
  %78 = load ptr, ptr %16, align 8, !tbaa !132
  %79 = load i32, ptr %15, align 4, !tbaa !30
  %80 = mul nsw i32 3, %79
  %81 = add nsw i32 %80, 1
  %82 = sext i32 %81 to i64
  %83 = getelementptr inbounds float, ptr %78, i64 %82
  %84 = load i32, ptr %83, align 1, !tbaa !36
  %85 = call nsz float @av_int2float(i32 noundef %84)
  br label %86

86:                                               ; preds = %77, %67
  %87 = phi nsz float [ %76, %67 ], [ %85, %77 ]
  %88 = fmul nsz float 6.553500e+04, %87
  %89 = call nsz float @av_clipf_c(float noundef %88, float noundef 0.000000e+00, float noundef 6.553500e+04) #10
  %90 = call i64 @llvm.lrint.i64.f32(float %89)
  %91 = trunc i64 %90 to i32
  store i32 %91, ptr %22, align 4, !tbaa !30
  call void @llvm.lifetime.start.p0(i64 4, ptr %23) #9
  %92 = load i32, ptr %13, align 4, !tbaa !30
  %93 = icmp ne i32 %92, 0
  br i1 %93, label %94, label %104

94:                                               ; preds = %86
  %95 = load ptr, ptr %16, align 8, !tbaa !132
  %96 = load i32, ptr %15, align 4, !tbaa !30
  %97 = mul nsw i32 3, %96
  %98 = add nsw i32 %97, 2
  %99 = sext i32 %98 to i64
  %100 = getelementptr inbounds float, ptr %95, i64 %99
  %101 = load i32, ptr %100, align 1, !tbaa !36
  %102 = call i32 @av_bswap32(i32 noundef %101) #10
  %103 = call nsz float @av_int2float(i32 noundef %102)
  br label %113

104:                                              ; preds = %86
  %105 = load ptr, ptr %16, align 8, !tbaa !132
  %106 = load i32, ptr %15, align 4, !tbaa !30
  %107 = mul nsw i32 3, %106
  %108 = add nsw i32 %107, 2
  %109 = sext i32 %108 to i64
  %110 = getelementptr inbounds float, ptr %105, i64 %109
  %111 = load i32, ptr %110, align 1, !tbaa !36
  %112 = call nsz float @av_int2float(i32 noundef %111)
  br label %113

113:                                              ; preds = %104, %94
  %114 = phi nsz float [ %103, %94 ], [ %112, %104 ]
  %115 = fmul nsz float 6.553500e+04, %114
  %116 = call nsz float @av_clipf_c(float noundef %115, float noundef 0.000000e+00, float noundef 6.553500e+04) #10
  %117 = call i64 @llvm.lrint.i64.f32(float %116)
  %118 = trunc i64 %117 to i32
  store i32 %118, ptr %23, align 4, !tbaa !30
  %119 = load i32, ptr %18, align 4, !tbaa !30
  %120 = load i32, ptr %21, align 4, !tbaa !30
  %121 = mul nsw i32 %119, %120
  %122 = load i32, ptr %19, align 4, !tbaa !30
  %123 = load i32, ptr %22, align 4, !tbaa !30
  %124 = mul nsw i32 %122, %123
  %125 = add nsw i32 %121, %124
  %126 = load i32, ptr %20, align 4, !tbaa !30
  %127 = load i32, ptr %23, align 4, !tbaa !30
  %128 = mul nsw i32 %126, %127
  %129 = add nsw i32 %125, %128
  %130 = add nsw i32 %129, 134234112
  %131 = ashr i32 %130, 15
  %132 = trunc i32 %131 to i16
  %133 = load ptr, ptr %17, align 8, !tbaa !43
  %134 = load i32, ptr %15, align 4, !tbaa !30
  %135 = sext i32 %134 to i64
  %136 = getelementptr inbounds i16, ptr %133, i64 %135
  store i16 %132, ptr %136, align 2, !tbaa !44
  call void @llvm.lifetime.end.p0(i64 4, ptr %23) #9
  call void @llvm.lifetime.end.p0(i64 4, ptr %22) #9
  call void @llvm.lifetime.end.p0(i64 4, ptr %21) #9
  br label %137

137:                                              ; preds = %113
  %138 = load i32, ptr %15, align 4, !tbaa !30
  %139 = add nsw i32 %138, 1
  store i32 %139, ptr %15, align 4, !tbaa !30
  br label %35, !llvm.loop !167

140:                                              ; preds = %35
  call void @llvm.lifetime.end.p0(i64 4, ptr %20) #9
  call void @llvm.lifetime.end.p0(i64 4, ptr %19) #9
  call void @llvm.lifetime.end.p0(i64 4, ptr %18) #9
  call void @llvm.lifetime.end.p0(i64 8, ptr %17) #9
  call void @llvm.lifetime.end.p0(i64 8, ptr %16) #9
  call void @llvm.lifetime.end.p0(i64 4, ptr %15) #9
  ret void
}

; Function Attrs: nounwind uwtable
define internal void @rgbf32be_to_y_c(ptr noundef %0, ptr noundef %1, ptr noundef %2, ptr noundef %3, i32 noundef %4, ptr noundef %5, ptr noundef %6) #2 {
  %8 = alloca ptr, align 8
  %9 = alloca ptr, align 8
  %10 = alloca ptr, align 8
  %11 = alloca ptr, align 8
  %12 = alloca i32, align 4
  %13 = alloca ptr, align 8
  %14 = alloca ptr, align 8
  store ptr %0, ptr %8, align 8, !tbaa !34
  store ptr %1, ptr %9, align 8, !tbaa !34
  store ptr %2, ptr %10, align 8, !tbaa !34
  store ptr %3, ptr %11, align 8, !tbaa !34
  store i32 %4, ptr %12, align 4, !tbaa !30
  store ptr %5, ptr %13, align 8, !tbaa !35
  store ptr %6, ptr %14, align 8, !tbaa !31
  %15 = load ptr, ptr %8, align 8, !tbaa !34
  %16 = load ptr, ptr %9, align 8, !tbaa !34
  %17 = load ptr, ptr %10, align 8, !tbaa !34
  %18 = load ptr, ptr %11, align 8, !tbaa !34
  %19 = load i32, ptr %12, align 4, !tbaa !30
  %20 = load ptr, ptr %13, align 8, !tbaa !35
  call void @rgbf32_to_y_c(ptr noundef %15, ptr noundef %16, ptr noundef %17, ptr noundef %18, i32 noundef %19, i32 noundef 1, ptr noundef %20)
  ret void
}