; Function Attrs: nofree norecurse nosync nounwind memory(argmem: readwrite) uwtable
define internal void @rgbf32be_to_y_c(ptr noundef writeonly captures(none) %0, ptr noundef readonly captures(none) %1, ptr readnone captures(none) %2, ptr readnone captures(none) %3, i32 noundef %4, ptr noundef readonly captures(none) %5, ptr readnone captures(none) %6) #1 {
  %8 = load i32, ptr %5, align 4, !tbaa !42
  %9 = getelementptr inbounds nuw i8, ptr %5, i64 4
  %10 = load i32, ptr %9, align 4, !tbaa !42
  %11 = getelementptr inbounds nuw i8, ptr %5, i64 8
  %12 = load i32, ptr %11, align 4, !tbaa !42
  %13 = icmp sgt i32 %4, 0
  br i1 %13, label %.lr.ph.preheader, label %rgbf32_to_y_c.exit

.lr.ph.preheader:                                 ; preds = %7
  %wide.trip.count = zext nneg i32 %4 to i64
  br label %.lr.ph

.lr.ph:                                           ; preds = %.lr.ph.preheader, %.lr.ph
  %indvars.iv = phi i64 [ 0, %.lr.ph.preheader ], [ %indvars.iv.next, %.lr.ph ]
  %.idx = mul nuw nsw i64 %indvars.iv, 12
  %14 = getelementptr inbounds nuw i8, ptr %1, i64 %.idx
  %15 = load i32, ptr %14, align 1, !tbaa !34
  %16 = tail call i32 @llvm.bswap.i32(i32 %15)
  %17 = bitcast i32 %16 to float
  %18 = fmul nsz float %17, 6.553500e+04
  %19 = fcmp nsz ogt float %18, 0.000000e+00
  %20 = select nsz i1 %19, float %18, float 0.000000e+00
  %21 = fcmp nsz ogt float %20, 6.553500e+04
  %..i31.i = select nsz i1 %21, float 6.553500e+04, float %20
  %22 = tail call i64 @llvm.lrint.i64.f32(float %..i31.i)
  %23 = trunc i64 %22 to i32
  %24 = getelementptr inbounds nuw i8, ptr %14, i64 4
  %25 = load i32, ptr %24, align 1, !tbaa !34
  %26 = tail call i32 @llvm.bswap.i32(i32 %25)
  %27 = bitcast i32 %26 to float
  %28 = fmul nsz float %27, 6.553500e+04
  %29 = fcmp nsz ogt float %28, 0.000000e+00
  %30 = select nsz i1 %29, float %28, float 0.000000e+00
  %31 = fcmp nsz ogt float %30, 6.553500e+04
  %..i30.i = select nsz i1 %31, float 6.553500e+04, float %30
  %32 = tail call i64 @llvm.lrint.i64.f32(float %..i30.i)
  %33 = trunc i64 %32 to i32
  %34 = getelementptr inbounds nuw i8, ptr %14, i64 8
  %35 = load i32, ptr %34, align 1, !tbaa !34
  %36 = tail call i32 @llvm.bswap.i32(i32 %35)
  %37 = bitcast i32 %36 to float
  %38 = fmul nsz float %37, 6.553500e+04
  %39 = fcmp nsz ogt float %38, 0.000000e+00
  %40 = select nsz i1 %39, float %38, float 0.000000e+00
  %41 = fcmp nsz ogt float %40, 6.553500e+04
  %..i.i = select nsz i1 %41, float 6.553500e+04, float %40
  %42 = tail call i64 @llvm.lrint.i64.f32(float %..i.i)
  %43 = trunc i64 %42 to i32
  %44 = mul nsw i32 %8, %23
  %45 = mul nsw i32 %10, %33
  %46 = mul nsw i32 %12, %43
  %47 = add i32 %44, 134234112
  %48 = add i32 %47, %45
  %49 = add i32 %48, %46
  %50 = lshr i32 %49, 15
  %51 = trunc i32 %50 to i16
  %52 = getelementptr inbounds nuw i16, ptr %0, i64 %indvars.iv
  store i16 %51, ptr %52, align 2, !tbaa !43
  %indvars.iv.next = add nuw nsw i64 %indvars.iv, 1
  %exitcond.not = icmp eq i64 %indvars.iv.next, %wide.trip.count
  br i1 %exitcond.not, label %rgbf32_to_y_c.exit, label %.lr.ph, !llvm.loop !141

rgbf32_to_y_c.exit:                               ; preds = %.lr.ph, %7
  ret void
}